; ModuleID = '31/1191.c'
source_filename = "31/1191.c"
target datalayout = "e-m:e-p270:32:32-p271:32:32-p272:64:64-i64:64-f80:128-n8:16:32:64-S128"
target triple = "x86_64-pc-linux-gnu"

%struct.student = type { [50 x i8], [100 x i8], %struct.student* }

@.str = private unnamed_addr constant [3 x i8] c"%s\00", align 1
@.str.1 = private unnamed_addr constant [4 x i8] c"end\00", align 1
@tail = common dso_local global %struct.student* null, align 8
@.str.2 = private unnamed_addr constant [6 x i8] c"%s%s\0A\00", align 1
@n = common dso_local global i32 0, align 4

; Function Attrs: noinline nounwind uwtable
define dso_local %struct.student* @creat() #0 {
  %1 = alloca %struct.student*, align 8
  %2 = alloca %struct.student*, align 8
  %3 = alloca %struct.student*, align 8
  %4 = alloca i32, align 4
  store i32 0, i32* %4, align 4
  %5 = call noalias i8* @malloc(i64 100) #4
  %6 = bitcast i8* %5 to %struct.student*
  store %struct.student* %6, %struct.student** %3, align 8
  store %struct.student* %6, %struct.student** %2, align 8
  %7 = load %struct.student*, %struct.student** %2, align 8
  %8 = getelementptr inbounds %struct.student, %struct.student* %7, i32 0, i32 0
  %9 = getelementptr inbounds [50 x i8], [50 x i8]* %8, i64 0, i64 0
  %10 = call i32 (i8*, ...) @__isoc99_scanf(i8* getelementptr inbounds ([3 x i8], [3 x i8]* @.str, i64 0, i64 0), i8* %9)
  store %struct.student* null, %struct.student** %1, align 8
  br label %11

11:                                               ; preds = %34, %0
  %12 = load %struct.student*, %struct.student** %2, align 8
  %13 = getelementptr inbounds %struct.student, %struct.student* %12, i32 0, i32 0
  %14 = getelementptr inbounds [50 x i8], [50 x i8]* %13, i64 0, i64 0
  %15 = call i32 @strcmp(i8* %14, i8* getelementptr inbounds ([4 x i8], [4 x i8]* @.str.1, i64 0, i64 0)) #5
  %16 = icmp ne i32 %15, 0
  br i1 %16, label %17, label %42

17:                                               ; preds = %11
  %18 = load %struct.student*, %struct.student** %2, align 8
  %19 = getelementptr inbounds %struct.student, %struct.student* %18, i32 0, i32 1
  %20 = getelementptr inbounds [100 x i8], [100 x i8]* %19, i64 0, i64 0
  %21 = call i32 (i8*, ...) bitcast (i32 (...)* @gets to i32 (i8*, ...)*)(i8* %20)
  %22 = load i32, i32* %4, align 4
  %23 = add nsw i32 %22, 1
  store i32 %23, i32* %4, align 4
  %24 = load i32, i32* %4, align 4
  %25 = icmp eq i32 %24, 1
  br i1 %25, label %26, label %30

26:                                               ; preds = %17
  %27 = load %struct.student*, %struct.student** %2, align 8
  store %struct.student* %27, %struct.student** %1, align 8
  %28 = load %struct.student*, %struct.student** %1, align 8
  %29 = getelementptr inbounds %struct.student, %struct.student* %28, i32 0, i32 2
  store %struct.student* null, %struct.student** %29, align 8
  br label %34

30:                                               ; preds = %17
  %31 = load %struct.student*, %struct.student** %3, align 8
  %32 = load %struct.student*, %struct.student** %2, align 8
  %33 = getelementptr inbounds %struct.student, %struct.student* %32, i32 0, i32 2
  store %struct.student* %31, %struct.student** %33, align 8
  br label %34

34:                                               ; preds = %30, %26
  %35 = load %struct.student*, %struct.student** %2, align 8
  store %struct.student* %35, %struct.student** %3, align 8
  %36 = call noalias i8* @malloc(i64 100) #4
  %37 = bitcast i8* %36 to %struct.student*
  store %struct.student* %37, %struct.student** %2, align 8
  %38 = load %struct.student*, %struct.student** %2, align 8
  %39 = getelementptr inbounds %struct.student, %struct.student* %38, i32 0, i32 0
  %40 = getelementptr inbounds [50 x i8], [50 x i8]* %39, i64 0, i64 0
  %41 = call i32 (i8*, ...) @__isoc99_scanf(i8* getelementptr inbounds ([3 x i8], [3 x i8]* @.str, i64 0, i64 0), i8* %40)
  br label %11

42:                                               ; preds = %11
  %43 = load %struct.student*, %struct.student** %3, align 8
  store %struct.student* %43, %struct.student** @tail, align 8
  %44 = load %struct.student*, %struct.student** @tail, align 8
  ret %struct.student* %44
}

; Function Attrs: nounwind
declare dso_local noalias i8* @malloc(i64) #1

declare dso_local i32 @__isoc99_scanf(i8*, ...) #2

; Function Attrs: nounwind readonly
declare dso_local i32 @strcmp(i8*, i8*) #3

declare dso_local i32 @gets(...) #2

; Function Attrs: noinline nounwind uwtable
define dso_local i32 @main() #0 {
  %1 = alloca i32, align 4
  %2 = alloca %struct.student*, align 8
  store i32 0, i32* %1, align 4
  %3 = call %struct.student* @creat()
  %4 = load %struct.student*, %struct.student** @tail, align 8
  store %struct.student* %4, %struct.student** %2, align 8
  br label %5

5:                                                ; preds = %8, %0
  %6 = load %struct.student*, %struct.student** %2, align 8
  %7 = icmp ne %struct.student* %6, null
  br i1 %7, label %8, label %19

8:                                                ; preds = %5
  %9 = load %struct.student*, %struct.student** %2, align 8
  %10 = getelementptr inbounds %struct.student, %struct.student* %9, i32 0, i32 0
  %11 = getelementptr inbounds [50 x i8], [50 x i8]* %10, i64 0, i64 0
  %12 = load %struct.student*, %struct.student** %2, align 8
  %13 = getelementptr inbounds %struct.student, %struct.student* %12, i32 0, i32 1
  %14 = getelementptr inbounds [100 x i8], [100 x i8]* %13, i64 0, i64 0
  %15 = call i32 (i8*, ...) @printf(i8* getelementptr inbounds ([6 x i8], [6 x i8]* @.str.2, i64 0, i64 0), i8* %11, i8* %14)
  %16 = load %struct.student*, %struct.student** %2, align 8
  %17 = getelementptr inbounds %struct.student, %struct.student* %16, i32 0, i32 2
  %18 = load %struct.student*, %struct.student** %17, align 8
  store %struct.student* %18, %struct.student** %2, align 8
  br label %5

19:                                               ; preds = %5
  %20 = load i32, i32* %1, align 4
  ret i32 %20
}

declare dso_local i32 @printf(i8*, ...) #2


!llvm.module.flags = !{!0}
!llvm.ident = !{!1}

!0 = !{i32 1, !"wchar_size", i32 4}
!1 = !{!"clang version 10.0.0-4ubuntu1 "}
